target datalayout = "e-m:e-p270:32:32-p271:32:32-p272:64:64-i64:64-i128:128-f80:128-n8:16:32:64-S128"
target triple = "x86_64-pc-linux-gnu"

%struct.ident_t = type { i32, i32, i32, i32, ptr }
%"struct.std::_Vector_base.14" = type { %"struct.std::_Vector_base<double, std::allocator<double>>::_Vector_impl" }
%"struct.std::_Vector_base<double, std::allocator<double>>::_Vector_impl" = type { %"struct.std::_Vector_base<double, std::allocator<double>>::_Vector_impl_data" }
%"struct.std::_Vector_base<double, std::allocator<double>>::_Vector_impl_data" = type { ptr, ptr, ptr }
%"class.LightGBM::ObjectiveFunction" = type { ptr }
%"class.std::vector" = type { %"struct.std::_Vector_base" }
%"struct.std::_Vector_base" = type { %"struct.std::_Vector_base<float, std::allocator<float>>::_Vector_impl" }
%"struct.std::_Vector_base<float, std::allocator<float>>::_Vector_impl" = type { %"struct.std::_Vector_base<float, std::allocator<float>>::_Vector_impl_data" }
%"struct.std::_Vector_base<float, std::allocator<float>>::_Vector_impl_data" = type { ptr, ptr, ptr }
%"struct.std::_Vector_base.19" = type { %"struct.std::_Vector_base<int, std::allocator<int>>::_Vector_impl" }
%"struct.std::_Vector_base<int, std::allocator<int>>::_Vector_impl" = type { %"struct.std::_Vector_base<int, std::allocator<int>>::_Vector_impl_data" }
%"struct.std::_Vector_base<int, std::allocator<int>>::_Vector_impl_data" = type { ptr, ptr, ptr }
%"class.LightGBM::RankingObjective" = type { %"class.LightGBM::ObjectiveFunction", i32, i32, i32, ptr, ptr, ptr, ptr, i32, ptr, %"class.std::vector", double, double }

@2 = private unnamed_addr constant %struct.ident_t { i32 0, i32 2, i32 0, i32 22, ptr @0 }, align 8

; Function Attrs: inlinehint mustprogress nounwind uwtable
define linkonce_odr noundef double @_ZSt3absd(double noundef %0) #5 comdat {
  %2 = alloca double, align 8
  store double %0, ptr %2, align 8, !tbaa !194
  %3 = load double, ptr %2, align 8, !tbaa !194
  %4 = call double @llvm.fabs.f64(double %3)
  ret double %4
}

; Function Attrs: mustprogress nounwind uwtable
define linkonce_odr noundef nonnull align 4 dereferenceable(4) ptr @_ZNSt6vectorIfSaIfEEixEm(ptr noundef nonnull align 8 dereferenceable(24) %0, i64 noundef %1) #7 comdat align 2 {
  %3 = alloca ptr, align 8
  %4 = alloca i64, align 8
  store ptr %0, ptr %3, align 8, !tbaa !184
  store i64 %1, ptr %4, align 8, !tbaa !166
  %5 = load ptr, ptr %3, align 8
  %6 = getelementptr inbounds nuw %"struct.std::_Vector_base", ptr %5, i32 0, i32 0
  %7 = getelementptr inbounds nuw %"struct.std::_Vector_base<float, std::allocator<float>>::_Vector_impl_data", ptr %6, i32 0, i32 0
  %8 = load ptr, ptr %7, align 8, !tbaa !203
  %9 = load i64, ptr %4, align 8, !tbaa !166
  %10 = getelementptr inbounds nuw float, ptr %8, i64 %9
  ret ptr %10
}

; Function Attrs: mustprogress nounwind uwtable
define linkonce_odr noundef nonnull align 4 dereferenceable(4) ptr @_ZNSt6vectorIiSaIiEEixEm(ptr noundef nonnull align 8 dereferenceable(24) %0, i64 noundef %1) #7 comdat align 2 {
  %3 = alloca ptr, align 8
  %4 = alloca i64, align 8
  store ptr %0, ptr %3, align 8, !tbaa !315
  store i64 %1, ptr %4, align 8, !tbaa !166
  %5 = load ptr, ptr %3, align 8
  %6 = getelementptr inbounds nuw %"struct.std::_Vector_base.19", ptr %5, i32 0, i32 0
  %7 = getelementptr inbounds nuw %"struct.std::_Vector_base<int, std::allocator<int>>::_Vector_impl_data", ptr %6, i32 0, i32 0
  %8 = load ptr, ptr %7, align 8, !tbaa !318
  %9 = load i64, ptr %4, align 8, !tbaa !166
  %10 = getelementptr inbounds nuw i32, ptr %8, i64 %9
  ret ptr %10
}

; Function Attrs: mustprogress nounwind uwtable
define linkonce_odr noundef nonnull align 8 dereferenceable(8) ptr @_ZNSt6vectorIdSaIdEEixEm(ptr noundef nonnull align 8 dereferenceable(24) %0, i64 noundef %1) #7 comdat align 2 {
  %3 = alloca ptr, align 8
  %4 = alloca i64, align 8
  store ptr %0, ptr %3, align 8, !tbaa !304
  store i64 %1, ptr %4, align 8, !tbaa !166
  %5 = load ptr, ptr %3, align 8
  %6 = getelementptr inbounds nuw %"struct.std::_Vector_base.14", ptr %5, i32 0, i32 0
  %7 = getelementptr inbounds nuw %"struct.std::_Vector_base<double, std::allocator<double>>::_Vector_impl_data", ptr %6, i32 0, i32 0
  %8 = load ptr, ptr %7, align 8, !tbaa !307
  %9 = load i64, ptr %4, align 8, !tbaa !166
  %10 = getelementptr inbounds nuw double, ptr %8, i64 %9
  ret ptr %10
}

; Function Attrs: alwaysinline norecurse nounwind uwtable
define internal void @_ZNK8LightGBM14LambdarankNDCG25UpdatePositionBiasFactorsEPKfS2_.omp_outlined.55(ptr noalias noundef %0, ptr noalias noundef %1, ptr noundef %2, ptr noundef nonnull align 4 dereferenceable(4) %3, ptr noundef nonnull align 8 dereferenceable(24) %4, ptr noundef nonnull align 8 dereferenceable(24) %5, ptr noundef nonnull align 8 dereferenceable(24) %6) #16 {
  %8 = alloca ptr, align 8
  %9 = alloca ptr, align 8
  %10 = alloca ptr, align 8
  %11 = alloca ptr, align 8
  %12 = alloca ptr, align 8
  %13 = alloca ptr, align 8
  %14 = alloca ptr, align 8
  %15 = alloca i32, align 4
  %16 = alloca i32, align 4
  %17 = alloca i32, align 4
  %18 = alloca i32, align 4
  %19 = alloca i32, align 4
  %20 = alloca i32, align 4
  %21 = alloca i32, align 4
  %22 = alloca i32, align 4
  %23 = alloca i32, align 4
  %24 = alloca double, align 8
  %25 = alloca double, align 8
  %26 = alloca i32, align 4
  %27 = alloca i32, align 4
  %28 = alloca i64, align 8
  store ptr %0, ptr %8, align 8, !tbaa !193
  store ptr %1, ptr %9, align 8, !tbaa !193
  store ptr %2, ptr %10, align 8, !tbaa !112
  store ptr %3, ptr %11, align 8, !tbaa !193
  store ptr %4, ptr %12, align 8, !tbaa !304
  store ptr %5, ptr %13, align 8, !tbaa !304
  store ptr %6, ptr %14, align 8, !tbaa !315
  %29 = load ptr, ptr %10, align 8, !tbaa !112
  %30 = load ptr, ptr %11, align 8, !tbaa !193
  %31 = load ptr, ptr %12, align 8, !tbaa !304
  %32 = load ptr, ptr %13, align 8, !tbaa !304
  %33 = load ptr, ptr %14, align 8, !tbaa !315
  call void @llvm.lifetime.start.p0(i64 4, ptr %15) #3
  call void @llvm.lifetime.start.p0(i64 4, ptr %16) #3
  %34 = getelementptr inbounds nuw %"class.LightGBM::RankingObjective", ptr %29, i32 0, i32 8
  %35 = load i32, ptr %34, align 8, !tbaa !609
  store i32 %35, ptr %16, align 4, !tbaa !141
  call void @llvm.lifetime.start.p0(i64 4, ptr %17) #3
  %36 = load i32, ptr %16, align 4, !tbaa !141
  %37 = sub nsw i32 %36, 0
  %38 = sdiv i32 %37, 1
  %39 = sub nsw i32 %38, 1
  store i32 %39, ptr %17, align 4, !tbaa !141
  call void @llvm.lifetime.start.p0(i64 4, ptr %18) #3
  store i32 0, ptr %18, align 4, !tbaa !141
  call void @llvm.lifetime.end.p0(i64 4, ptr %18) #3
  %40 = load i32, ptr %16, align 4, !tbaa !141
  %41 = icmp slt i32 0, %40
  br i1 %41, label %42, label %142

42:                                               ; preds = %7
  call void @llvm.lifetime.start.p0(i64 4, ptr %19) #3
  store i32 0, ptr %19, align 4, !tbaa !141
  call void @llvm.lifetime.start.p0(i64 4, ptr %20) #3
  %43 = load i32, ptr %17, align 4, !tbaa !141
  store i32 %43, ptr %20, align 4, !tbaa !141
  call void @llvm.lifetime.start.p0(i64 4, ptr %21) #3
  store i32 1, ptr %21, align 4, !tbaa !141
  call void @llvm.lifetime.start.p0(i64 4, ptr %22) #3
  store i32 0, ptr %22, align 4, !tbaa !141
  call void @llvm.lifetime.start.p0(i64 4, ptr %23) #3
  %44 = load i32, ptr %17, align 4, !tbaa !141
  %45 = load ptr, ptr %8, align 8
  %46 = load i32, ptr %45, align 4, !tbaa !141
  call void @__kmpc_dispatch_init_4(ptr @2, i32 %46, i32 1073741860, i32 0, i32 %44, i32 1, i32 1)
  br label %47

47:                                               ; preds = %138, %42
  %48 = load ptr, ptr %8, align 8
  %49 = load i32, ptr %48, align 4, !tbaa !141
  %50 = call i32 @__kmpc_dispatch_next_4(ptr @2, i32 %49, ptr %22, ptr %19, ptr %20, ptr %21)
  %51 = icmp ne i32 %50, 0
  br i1 %51, label %53, label %52

52:                                               ; preds = %47
  br label %139

53:                                               ; preds = %47
  %54 = load i32, ptr %19, align 4, !tbaa !141
  store i32 %54, ptr %15, align 4, !tbaa !141
  br label %55

55:                                               ; preds = %134, %53
  %56 = load i32, ptr %15, align 4, !tbaa !141, !llvm.access.group !682
  %57 = load i32, ptr %20, align 4, !tbaa !141, !llvm.access.group !682
  %58 = icmp sle i32 %56, %57
  br i1 %58, label %60, label %59

59:                                               ; preds = %55
  br label %137

60:                                               ; preds = %55
  %61 = load i32, ptr %15, align 4, !tbaa !141, !llvm.access.group !682
  %62 = mul nsw i32 %61, 1
  %63 = add nsw i32 0, %62
  store i32 %63, ptr %23, align 4, !tbaa !141, !llvm.access.group !682
  call void @llvm.lifetime.start.p0(i64 8, ptr %24) #3, !llvm.access.group !682
  store double 0.000000e+00, ptr %24, align 8, !tbaa !194, !llvm.access.group !682
  call void @llvm.lifetime.start.p0(i64 8, ptr %25) #3, !llvm.access.group !682
  store double 0.000000e+00, ptr %25, align 8, !tbaa !194, !llvm.access.group !682
  call void @llvm.lifetime.start.p0(i64 4, ptr %26) #3, !llvm.access.group !682
  store i32 0, ptr %26, align 4, !tbaa !141, !llvm.access.group !682
  call void @llvm.lifetime.start.p0(i64 4, ptr %27) #3, !llvm.access.group !682
  store i32 0, ptr %27, align 4, !tbaa !141, !llvm.access.group !682
  br label %64

64:                                               ; preds = %92, %60
  %65 = load i32, ptr %27, align 4, !tbaa !141, !llvm.access.group !682
  %66 = load i32, ptr %30, align 4, !tbaa !141, !llvm.access.group !682
  %67 = icmp slt i32 %65, %66
  br i1 %67, label %69, label %68

68:                                               ; preds = %64
  call void @llvm.lifetime.end.p0(i64 4, ptr %27) #3, !llvm.access.group !682
  br label %95

69:                                               ; preds = %64
  call void @llvm.lifetime.start.p0(i64 8, ptr %28) #3, !llvm.access.group !682
  %70 = load i32, ptr %23, align 4, !tbaa !141, !llvm.access.group !682
  %71 = load i32, ptr %27, align 4, !tbaa !141, !llvm.access.group !682
  %72 = getelementptr inbounds nuw %"class.LightGBM::RankingObjective", ptr %29, i32 0, i32 8
  %73 = load i32, ptr %72, align 8, !tbaa !609, !llvm.access.group !682
  %74 = mul nsw i32 %71, %73
  %75 = add nsw i32 %70, %74
  %76 = sext i32 %75 to i64
  store i64 %76, ptr %28, align 8, !tbaa !166, !llvm.access.group !682
  %77 = load i64, ptr %28, align 8, !tbaa !166, !llvm.access.group !682
  %78 = call noundef nonnull align 8 dereferenceable(8) ptr @_ZNSt6vectorIdSaIdEEixEm(ptr noundef nonnull align 8 dereferenceable(24) %31, i64 noundef %77) #3, !llvm.access.group !682
  %79 = load double, ptr %78, align 8, !tbaa !194, !llvm.access.group !682
  %80 = load double, ptr %24, align 8, !tbaa !194, !llvm.access.group !682
  %81 = fadd double %80, %79
  store double %81, ptr %24, align 8, !tbaa !194, !llvm.access.group !682
  %82 = load i64, ptr %28, align 8, !tbaa !166, !llvm.access.group !682
  %83 = call noundef nonnull align 8 dereferenceable(8) ptr @_ZNSt6vectorIdSaIdEEixEm(ptr noundef nonnull align 8 dereferenceable(24) %32, i64 noundef %82) #3, !llvm.access.group !682
  %84 = load double, ptr %83, align 8, !tbaa !194, !llvm.access.group !682
  %85 = load double, ptr %25, align 8, !tbaa !194, !llvm.access.group !682
  %86 = fadd double %85, %84
  store double %86, ptr %25, align 8, !tbaa !194, !llvm.access.group !682
  %87 = load i64, ptr %28, align 8, !tbaa !166, !llvm.access.group !682
  %88 = call noundef nonnull align 4 dereferenceable(4) ptr @_ZNSt6vectorIiSaIiEEixEm(ptr noundef nonnull align 8 dereferenceable(24) %33, i64 noundef %87) #3, !llvm.access.group !682
  %89 = load i32, ptr %88, align 4, !tbaa !141, !llvm.access.group !682
  %90 = load i32, ptr %26, align 4, !tbaa !141, !llvm.access.group !682
  %91 = add nsw i32 %90, %89
  store i32 %91, ptr %26, align 4, !tbaa !141, !llvm.access.group !682
  call void @llvm.lifetime.end.p0(i64 8, ptr %28) #3, !llvm.access.group !682
  br label %92

92:                                               ; preds = %69
  %93 = load i32, ptr %27, align 4, !tbaa !141, !llvm.access.group !682
  %94 = add nsw i32 %93, 1
  store i32 %94, ptr %27, align 4, !tbaa !141, !llvm.access.group !682
  br label %64, !llvm.loop !683

95:                                               ; preds = %68
  %96 = getelementptr inbounds nuw %"class.LightGBM::RankingObjective", ptr %29, i32 0, i32 10
  %97 = load i32, ptr %23, align 4, !tbaa !141, !llvm.access.group !682
  %98 = sext i32 %97 to i64
  %99 = call noundef nonnull align 4 dereferenceable(4) ptr @_ZNSt6vectorIfSaIfEEixEm(ptr noundef nonnull align 8 dereferenceable(24) %96, i64 noundef %98) #3, !llvm.access.group !682
  %100 = load float, ptr %99, align 4, !tbaa !210, !llvm.access.group !682
  %101 = fpext float %100 to double
  %102 = getelementptr inbounds nuw %"class.LightGBM::RankingObjective", ptr %29, i32 0, i32 12
  %103 = load double, ptr %102, align 8, !tbaa !605, !llvm.access.group !682
  %104 = fmul double %101, %103
  %105 = load i32, ptr %26, align 4, !tbaa !141, !llvm.access.group !682
  %106 = sitofp i32 %105 to double
  %107 = load double, ptr %24, align 8, !tbaa !194, !llvm.access.group !682
  %108 = fneg double %104
  %109 = call double @llvm.fmuladd.f64(double %108, double %106, double %107)
  store double %109, ptr %24, align 8, !tbaa !194, !llvm.access.group !682
  %110 = getelementptr inbounds nuw %"class.LightGBM::RankingObjective", ptr %29, i32 0, i32 12
  %111 = load double, ptr %110, align 8, !tbaa !605, !llvm.access.group !682
  %112 = load i32, ptr %26, align 4, !tbaa !141, !llvm.access.group !682
  %113 = sitofp i32 %112 to double
  %114 = load double, ptr %25, align 8, !tbaa !194, !llvm.access.group !682
  %115 = fneg double %111
  %116 = call double @llvm.fmuladd.f64(double %115, double %113, double %114)
  store double %116, ptr %25, align 8, !tbaa !194, !llvm.access.group !682
  %117 = getelementptr inbounds nuw %"class.LightGBM::RankingObjective", ptr %29, i32 0, i32 11
  %118 = load double, ptr %117, align 8, !tbaa !603, !llvm.access.group !682
  %119 = load double, ptr %24, align 8, !tbaa !194, !llvm.access.group !682
  %120 = fmul double %118, %119
  %121 = load double, ptr %25, align 8, !tbaa !194, !llvm.access.group !682
  %122 = call noundef double @_ZSt3absd(double noundef %121), !llvm.access.group !682
  %123 = fadd double %122, 1.000000e-03
  %124 = fdiv double %120, %123
  %125 = getelementptr inbounds nuw %"class.LightGBM::RankingObjective", ptr %29, i32 0, i32 10
  %126 = load i32, ptr %23, align 4, !tbaa !141, !llvm.access.group !682
  %127 = sext i32 %126 to i64
  %128 = call noundef nonnull align 4 dereferenceable(4) ptr @_ZNSt6vectorIfSaIfEEixEm(ptr noundef nonnull align 8 dereferenceable(24) %125, i64 noundef %127) #3, !llvm.access.group !682
  %129 = load float, ptr %128, align 4, !tbaa !210, !llvm.access.group !682
  %130 = fpext float %129 to double
  %131 = fadd double %130, %124
  %132 = fptrunc double %131 to float
  store float %132, ptr %128, align 4, !tbaa !210, !llvm.access.group !682
  call void @llvm.lifetime.end.p0(i64 4, ptr %26) #3, !llvm.access.group !682
  call void @llvm.lifetime.end.p0(i64 8, ptr %25) #3, !llvm.access.group !682
  call void @llvm.lifetime.end.p0(i64 8, ptr %24) #3, !llvm.access.group !682
  br label %133

133:                                              ; preds = %95
  br label %134

134:                                              ; preds = %133
  %135 = load i32, ptr %15, align 4, !tbaa !141, !llvm.access.group !682
  %136 = add nsw i32 %135, 1
  store i32 %136, ptr %15, align 4, !tbaa !141, !llvm.access.group !682
  br label %55, !llvm.loop !684

137:                                              ; preds = %59
  br label %138

138:                                              ; preds = %137
  br label %47

139:                                              ; preds = %52
  %140 = load ptr, ptr %8, align 8
  %141 = load i32, ptr %140, align 4, !tbaa !141
  call void @__kmpc_dispatch_deinit(ptr @2, i32 %141)
  call void @llvm.lifetime.end.p0(i64 4, ptr %23) #3
  call void @llvm.lifetime.end.p0(i64 4, ptr %22) #3
  call void @llvm.lifetime.end.p0(i64 4, ptr %21) #3
  call void @llvm.lifetime.end.p0(i64 4, ptr %20) #3
  call void @llvm.lifetime.end.p0(i64 4, ptr %19) #3
  br label %142

142:                                              ; preds = %139, %7
  call void @llvm.lifetime.end.p0(i64 4, ptr %17) #3
  call void @llvm.lifetime.end.p0(i64 4, ptr %16) #3
  call void @llvm.lifetime.end.p0(i64 4, ptr %15) #3
  ret void
}