; Function Attrs: alwaysinline norecurse nounwind uwtable
define internal void @_ZNK8LightGBM14LambdarankNDCG25UpdatePositionBiasFactorsEPKfS2_.omp_outlined.55(ptr noalias noundef readonly captures(none) %0, ptr noalias readnone captures(none) %1, ptr noundef readonly captures(none) %2, ptr noundef nonnull readonly align 4 captures(none) dereferenceable(4) %3, ptr noundef nonnull readonly align 8 captures(none) dereferenceable(24) %4, ptr noundef nonnull readonly align 8 captures(none) dereferenceable(24) %5, ptr noundef nonnull readonly align 8 captures(none) dereferenceable(24) %6) #14 {
  %8 = alloca i32, align 4
  %9 = alloca i32, align 4
  %10 = alloca i32, align 4
  %11 = alloca i32, align 4
  %12 = getelementptr inbounds nuw i8, ptr %2, i64 56
  %13 = load i32, ptr %12, align 8, !tbaa !376
  %14 = icmp sgt i32 %13, 0
  br i1 %14, label %15, label %80

15:                                               ; preds = %7
  %16 = add nsw i32 %13, -1
  call void @llvm.lifetime.start.p0(i64 4, ptr nonnull %8) #15
  store i32 0, ptr %8, align 4, !tbaa !127
  call void @llvm.lifetime.start.p0(i64 4, ptr nonnull %9) #15
  store i32 %16, ptr %9, align 4, !tbaa !127
  call void @llvm.lifetime.start.p0(i64 4, ptr nonnull %10) #15
  store i32 1, ptr %10, align 4, !tbaa !127
  call void @llvm.lifetime.start.p0(i64 4, ptr nonnull %11) #15
  store i32 0, ptr %11, align 4, !tbaa !127
  %17 = load i32, ptr %0, align 4, !tbaa !127
  tail call void @__kmpc_dispatch_init_4(ptr nonnull @2, i32 %17, i32 1073741860, i32 0, i32 %16, i32 1, i32 1)
  %18 = call i32 @__kmpc_dispatch_next_4(ptr nonnull @2, i32 %17, ptr nonnull %11, ptr nonnull %8, ptr nonnull %9, ptr nonnull %10)
  %.not45 = icmp eq i32 %18, 0
  br i1 %.not45, label %._crit_edge, label %.lr.ph

.lr.ph:                                           ; preds = %15
  %19 = getelementptr inbounds nuw i8, ptr %2, i64 72
  %20 = getelementptr inbounds nuw i8, ptr %2, i64 104
  %21 = getelementptr inbounds nuw i8, ptr %2, i64 96
  br label %23

.loopexit:                                        ; preds = %.preheader, %._crit_edge.us, %23
  %22 = call i32 @__kmpc_dispatch_next_4(ptr nonnull @2, i32 %17, ptr nonnull %11, ptr nonnull %8, ptr nonnull %9, ptr nonnull %10)
  %.not = icmp eq i32 %22, 0
  br i1 %.not, label %._crit_edge, label %23

23:                                               ; preds = %.lr.ph, %.loopexit
  %24 = load i32, ptr %8, align 4, !tbaa !127
  %25 = load i32, ptr %9, align 4, !tbaa !127, !llvm.access.group !424
  %.not3643 = icmp sgt i32 %24, %25
  br i1 %.not3643, label %.loopexit, label %.preheader.lr.ph

.preheader.lr.ph:                                 ; preds = %23
  %26 = load i32, ptr %3, align 4, !tbaa !127, !llvm.access.group !424
  %27 = icmp sgt i32 %26, 0
  %28 = load ptr, ptr %4, align 8
  %29 = load ptr, ptr %5, align 8
  %30 = load ptr, ptr %6, align 8
  %31 = load ptr, ptr %19, align 8, !tbaa !95, !llvm.access.group !424
  %32 = load double, ptr %20, align 8, !tbaa !81, !llvm.access.group !424
  %33 = fneg double %32
  %34 = load double, ptr %21, align 8, !tbaa !79, !llvm.access.group !424
  br i1 %27, label %.preheader.lr.ph.split.us, label %.preheader.lr.ph.split

.preheader.lr.ph.split.us:                        ; preds = %.preheader.lr.ph
  %35 = load i32, ptr %12, align 8, !tbaa !376, !llvm.access.group !424
  %36 = sext i32 %35 to i64
  %37 = sext i32 %24 to i64
  %38 = add i32 %25, 1
  %wide.trip.count = zext nneg i32 %26 to i64
  br label %.preheader.us

.preheader.us:                                    ; preds = %._crit_edge.us, %.preheader.lr.ph.split.us
  %indvars.iv54 = phi i64 [ %indvars.iv.next55, %._crit_edge.us ], [ %37, %.preheader.lr.ph.split.us ]
  br label %39

39:                                               ; preds = %.preheader.us, %39
  %indvars.iv50 = phi i64 [ 0, %.preheader.us ], [ %indvars.iv.next51, %39 ]
  %.03339.us = phi i32 [ 0, %.preheader.us ], [ %50, %39 ]
  %.03438.us = phi double [ 0.000000e+00, %.preheader.us ], [ %47, %39 ]
  %.03537.us = phi double [ 0.000000e+00, %.preheader.us ], [ %44, %39 ]
  %40 = mul nsw i64 %indvars.iv50, %36
  %41 = add nsw i64 %40, %indvars.iv54
  %42 = getelementptr inbounds nuw double, ptr %28, i64 %41
  %43 = load double, ptr %42, align 8, !tbaa !153, !llvm.access.group !424
  %44 = fadd double %.03537.us, %43
  %45 = getelementptr inbounds nuw double, ptr %29, i64 %41
  %46 = load double, ptr %45, align 8, !tbaa !153, !llvm.access.group !424
  %47 = fadd double %.03438.us, %46
  %48 = getelementptr inbounds nuw i32, ptr %30, i64 %41
  %49 = load i32, ptr %48, align 4, !tbaa !127, !llvm.access.group !424
  %50 = add nsw i32 %49, %.03339.us
  %indvars.iv.next51 = add nuw nsw i64 %indvars.iv50, 1
  %exitcond53.not = icmp eq i64 %indvars.iv.next51, %wide.trip.count
  br i1 %exitcond53.not, label %._crit_edge.us, label %39, !llvm.loop !425

._crit_edge.us:                                   ; preds = %39
  %51 = getelementptr inbounds nuw float, ptr %31, i64 %indvars.iv54
  %52 = load float, ptr %51, align 4, !tbaa !175, !llvm.access.group !424
  %53 = fpext float %52 to double
  %54 = sitofp i32 %50 to double
  %55 = fneg double %53
  %56 = fmul double %32, %55
  %57 = call double @llvm.fmuladd.f64(double %56, double %54, double %44)
  %58 = call double @llvm.fmuladd.f64(double %33, double %54, double %47)
  %59 = fmul double %34, %57
  %60 = call noundef double @llvm.fabs.f64(double %58)
  %61 = fadd double %60, 1.000000e-03
  %62 = fdiv double %59, %61
  %63 = fadd double %62, %53
  %64 = fptrunc double %63 to float
  store float %64, ptr %51, align 4, !tbaa !175, !llvm.access.group !424
  %indvars.iv.next55 = add nsw i64 %indvars.iv54, 1
  %lftr.wideiv57 = trunc i64 %indvars.iv.next55 to i32
  %exitcond58.not = icmp eq i32 %38, %lftr.wideiv57
  br i1 %exitcond58.not, label %.loopexit, label %.preheader.us, !llvm.loop !426

.preheader.lr.ph.split:                           ; preds = %.preheader.lr.ph
  %65 = call double @llvm.fmuladd.f64(double %33, double 0.000000e+00, double 0.000000e+00)
  %66 = call noundef double @llvm.fabs.f64(double %65)
  %67 = fadd double %66, 1.000000e-03
  %68 = sext i32 %24 to i64
  %69 = add i32 %25, 1
  br label %.preheader

.preheader:                                       ; preds = %.preheader.lr.ph.split, %.preheader
  %indvars.iv = phi i64 [ %68, %.preheader.lr.ph.split ], [ %indvars.iv.next, %.preheader ]
  %70 = getelementptr inbounds nuw float, ptr %31, i64 %indvars.iv
  %71 = load float, ptr %70, align 4, !tbaa !175, !llvm.access.group !424
  %72 = fpext float %71 to double
  %73 = fneg double %72
  %74 = fmul double %32, %73
  %75 = call double @llvm.fmuladd.f64(double %74, double 0.000000e+00, double 0.000000e+00)
  %76 = fmul double %34, %75
  %77 = fdiv double %76, %67
  %78 = fadd double %77, %72
  %79 = fptrunc double %78 to float
  store float %79, ptr %70, align 4, !tbaa !175, !llvm.access.group !424
  %indvars.iv.next = add nsw i64 %indvars.iv, 1
  %lftr.wideiv = trunc i64 %indvars.iv.next to i32
  %exitcond.not = icmp eq i32 %69, %lftr.wideiv
  br i1 %exitcond.not, label %.loopexit, label %.preheader, !llvm.loop !426

._crit_edge:                                      ; preds = %.loopexit, %15
  call void @__kmpc_dispatch_deinit(ptr nonnull @2, i32 %17)
  call void @llvm.lifetime.end.p0(i64 4, ptr nonnull %11) #15
  call void @llvm.lifetime.end.p0(i64 4, ptr nonnull %10) #15
  call void @llvm.lifetime.end.p0(i64 4, ptr nonnull %9) #15
  call void @llvm.lifetime.end.p0(i64 4, ptr nonnull %8) #15
  br label %80

80:                                               ; preds = %._crit_edge, %7
  ret void
}